target datalayout = "e-m:e-p270:32:32-p271:32:32-p272:64:64-i64:64-i128:128-f80:128-n8:16:32:64-S128"
target triple = "x86_64-pc-linux-gnu"

%class.QString = type { %struct.QArrayDataPointer }
%struct.QArrayDataPointer = type { ptr, ptr, i64 }
%class.QByteArray = type { %struct.QArrayDataPointer.1 }
%struct.QArrayDataPointer.1 = type { ptr, ptr, i64 }
%struct.QArrayData = type { %class.QBasicAtomicInteger, %class.QFlags, i64 }
%class.QBasicAtomicInteger = type { %"struct.std::atomic" }
%"struct.std::atomic" = type { %"struct.std::__atomic_base" }
%"struct.std::__atomic_base" = type { i32 }
%class.QFlags = type { i32 }

@_ZN10QByteArray6_emptyE = external constant i8, align 1

; Function Attrs: mustprogress nounwind null_pointer_is_valid sspstrong uwtable
define linkonce_odr noundef i32 @_ZNSt13__atomic_baseIiEmmEv(ptr noundef align 4 dereferenceable_or_null(4) %0) #9 comdat align 2 {
  %2 = alloca ptr, align 8
  %3 = alloca i32, align 4
  %4 = alloca i32, align 4
  store ptr %0, ptr %2, align 8
  %5 = load ptr, ptr %2, align 8
  %6 = getelementptr inbounds nuw %"struct.std::__atomic_base", ptr %5, i32 0, i32 0
  store i32 1, ptr %3, align 4
  %7 = load i32, ptr %3, align 4
  %8 = atomicrmw sub ptr %6, i32 %7 seq_cst, align 4
  %9 = sub i32 %8, %7
  store i32 %9, ptr %4, align 4
  %10 = load i32, ptr %4, align 4
  ret i32 %10
}

; Function Attrs: inlinehint mustprogress nounwind null_pointer_is_valid sspstrong uwtable
define linkonce_odr noundef zeroext i1 @_ZN10QAtomicOpsIiE5derefIiEEbRSt6atomicIT_E(ptr noundef align 4 dereferenceable(4) %0) #2 comdat align 2 {
  %2 = alloca ptr, align 8
  store ptr %0, ptr %2, align 8
  %3 = load ptr, ptr %2, align 8
  %4 = call noundef i32 @_ZNSt13__atomic_baseIiEmmEv(ptr noundef align 4 dereferenceable_or_null(4) %3) #3
  %5 = icmp ne i32 %4, 0
  ret i1 %5
}

; Function Attrs: mustprogress nounwind null_pointer_is_valid sspstrong uwtable
define linkonce_odr noundef zeroext i1 @_ZN19QBasicAtomicIntegerIiE5derefEv(ptr noundef align 4 dereferenceable_or_null(4) %0) #9 comdat align 2 {
  %2 = alloca ptr, align 8
  store ptr %0, ptr %2, align 8
  %3 = load ptr, ptr %2, align 8
  %4 = getelementptr inbounds nuw %class.QBasicAtomicInteger, ptr %3, i32 0, i32 0
  %5 = call noundef zeroext i1 @_ZN10QAtomicOpsIiE5derefIiEEbRSt6atomicIT_E(ptr noundef align 4 dereferenceable(4) %4) #3
  ret i1 %5
}

; Function Attrs: mustprogress nounwind null_pointer_is_valid sspstrong uwtable
define linkonce_odr noundef zeroext i1 @_ZN10QArrayData5derefEv(ptr noundef align 8 dereferenceable_or_null(16) %0) #9 comdat align 2 {
  %2 = alloca ptr, align 8
  store ptr %0, ptr %2, align 8
  %3 = load ptr, ptr %2, align 8
  %4 = getelementptr inbounds nuw %struct.QArrayData, ptr %3, i32 0, i32 0
  %5 = call noundef zeroext i1 @_ZN19QBasicAtomicIntegerIiE5derefEv(ptr noundef align 4 dereferenceable_or_null(4) %4) #3
  ret i1 %5
}

; Function Attrs: mustprogress nounwind null_pointer_is_valid sspstrong uwtable
define linkonce_odr void @_ZN15QTypedArrayDataIDsE10deallocateEP10QArrayData(ptr noundef %0) #9 comdat align 2 {
  %2 = alloca ptr, align 8
  store ptr %0, ptr %2, align 8
  %3 = load ptr, ptr %2, align 8
  call void @_ZN10QArrayData10deallocateEPS_xx(ptr noundef %3, i64 noundef 2, i64 noundef 8) #3
  ret void
}

; Function Attrs: mustprogress nounwind null_pointer_is_valid sspstrong uwtable
define linkonce_odr void @_ZN9QtPrivate12QPodArrayOpsIDsE10destroyAllEv(ptr noundef align 8 dereferenceable_or_null(24) %0) #9 comdat align 2 {
  %2 = alloca ptr, align 8
  store ptr %0, ptr %2, align 8
  ret void
}

; Function Attrs: mustprogress nounwind null_pointer_is_valid sspstrong uwtable
define linkonce_odr noundef ptr @_ZN17QArrayDataPointerIDsEptEv(ptr noundef align 8 dereferenceable_or_null(24) %0) #9 comdat align 2 {
  %2 = alloca ptr, align 8
  store ptr %0, ptr %2, align 8
  %3 = load ptr, ptr %2, align 8
  ret ptr %3
}

; Function Attrs: mustprogress nounwind null_pointer_is_valid sspstrong uwtable
define linkonce_odr noundef zeroext i1 @_ZN17QArrayDataPointerIDsE5derefEv(ptr noundef align 8 dereferenceable_or_null(24) %0) #9 comdat align 2 {
  %2 = alloca ptr, align 8
  store ptr %0, ptr %2, align 8
  %3 = load ptr, ptr %2, align 8
  %4 = getelementptr inbounds nuw %struct.QArrayDataPointer, ptr %3, i32 0, i32 0
  %5 = load ptr, ptr %4, align 8
  %6 = icmp ne ptr %5, null
  br i1 %6, label %7, label %11

7:                                                ; preds = %1
  %8 = getelementptr inbounds nuw %struct.QArrayDataPointer, ptr %3, i32 0, i32 0
  %9 = load ptr, ptr %8, align 8
  %10 = call noundef zeroext i1 @_ZN10QArrayData5derefEv(ptr noundef align 8 dereferenceable_or_null(16) %9) #3
  br label %11

11:                                               ; preds = %7, %1
  %12 = phi i1 [ true, %1 ], [ %10, %7 ]
  ret i1 %12
}

; Function Attrs: mustprogress nounwind null_pointer_is_valid sspstrong uwtable
define linkonce_odr void @_ZN15QTypedArrayDataIcE10deallocateEP10QArrayData(ptr noundef %0) #9 comdat align 2 {
  %2 = alloca ptr, align 8
  store ptr %0, ptr %2, align 8
  %3 = load ptr, ptr %2, align 8
  call void @_ZN10QArrayData10deallocateEPS_xx(ptr noundef %3, i64 noundef 1, i64 noundef 8) #3
  ret void
}

; Function Attrs: mustprogress nounwind null_pointer_is_valid sspstrong uwtable
define linkonce_odr void @_ZN9QtPrivate12QPodArrayOpsIcE10destroyAllEv(ptr noundef align 8 dereferenceable_or_null(24) %0) #9 comdat align 2 {
  %2 = alloca ptr, align 8
  store ptr %0, ptr %2, align 8
  ret void
}

; Function Attrs: mustprogress nounwind null_pointer_is_valid sspstrong uwtable
define linkonce_odr noundef ptr @_ZN17QArrayDataPointerIcEptEv(ptr noundef align 8 dereferenceable_or_null(24) %0) #9 comdat align 2 {
  %2 = alloca ptr, align 8
  store ptr %0, ptr %2, align 8
  %3 = load ptr, ptr %2, align 8
  ret ptr %3
}

; Function Attrs: mustprogress nounwind null_pointer_is_valid sspstrong uwtable
define linkonce_odr noundef zeroext i1 @_ZN17QArrayDataPointerIcE5derefEv(ptr noundef align 8 dereferenceable_or_null(24) %0) #9 comdat align 2 {
  %2 = alloca ptr, align 8
  store ptr %0, ptr %2, align 8
  %3 = load ptr, ptr %2, align 8
  %4 = getelementptr inbounds nuw %struct.QArrayDataPointer.1, ptr %3, i32 0, i32 0
  %5 = load ptr, ptr %4, align 8
  %6 = icmp ne ptr %5, null
  br i1 %6, label %7, label %11

7:                                                ; preds = %1
  %8 = getelementptr inbounds nuw %struct.QArrayDataPointer.1, ptr %3, i32 0, i32 0
  %9 = load ptr, ptr %8, align 8
  %10 = call noundef zeroext i1 @_ZN10QArrayData5derefEv(ptr noundef align 8 dereferenceable_or_null(16) %9) #3
  br label %11

11:                                               ; preds = %7, %1
  %12 = phi i1 [ true, %1 ], [ %10, %7 ]
  ret i1 %12
}

; Function Attrs: mustprogress nounwind null_pointer_is_valid sspstrong uwtable
define linkonce_odr noundef ptr @_ZNK17QArrayDataPointerIcE4dataEv(ptr noundef align 8 dereferenceable_or_null(24) %0) #9 comdat align 2 {
  %2 = alloca ptr, align 8
  store ptr %0, ptr %2, align 8
  %3 = load ptr, ptr %2, align 8
  %4 = getelementptr inbounds nuw %struct.QArrayDataPointer.1, ptr %3, i32 0, i32 1
  %5 = load ptr, ptr %4, align 8
  ret ptr %5
}

; Function Attrs: mustprogress nounwind null_pointer_is_valid sspstrong uwtable
define linkonce_odr void @_ZN17QArrayDataPointerIDsED2Ev(ptr noundef align 8 dereferenceable_or_null(24) %0) unnamed_addr #9 comdat align 2 {
  %2 = alloca ptr, align 8
  store ptr %0, ptr %2, align 8
  %3 = load ptr, ptr %2, align 8
  %4 = call noundef zeroext i1 @_ZN17QArrayDataPointerIDsE5derefEv(ptr noundef align 8 dereferenceable_or_null(24) %3) #3
  br i1 %4, label %9, label %5

5:                                                ; preds = %1
  %6 = call noundef ptr @_ZN17QArrayDataPointerIDsEptEv(ptr noundef align 8 dereferenceable_or_null(24) %3) #3
  call void @_ZN9QtPrivate12QPodArrayOpsIDsE10destroyAllEv(ptr noundef align 8 dereferenceable_or_null(24) %6) #3
  %7 = getelementptr inbounds nuw %struct.QArrayDataPointer, ptr %3, i32 0, i32 0
  %8 = load ptr, ptr %7, align 8
  call void @_ZN15QTypedArrayDataIDsE10deallocateEP10QArrayData(ptr noundef %8) #3
  br label %9

9:                                                ; preds = %5, %1
  ret void
}

; Function Attrs: mustprogress nounwind null_pointer_is_valid sspstrong uwtable
define linkonce_odr void @_ZN17QArrayDataPointerIcED2Ev(ptr noundef align 8 dereferenceable_or_null(24) %0) unnamed_addr #9 comdat align 2 {
  %2 = alloca ptr, align 8
  store ptr %0, ptr %2, align 8
  %3 = load ptr, ptr %2, align 8
  %4 = call noundef zeroext i1 @_ZN17QArrayDataPointerIcE5derefEv(ptr noundef align 8 dereferenceable_or_null(24) %3) #3
  br i1 %4, label %9, label %5

5:                                                ; preds = %1
  %6 = call noundef ptr @_ZN17QArrayDataPointerIcEptEv(ptr noundef align 8 dereferenceable_or_null(24) %3) #3
  call void @_ZN9QtPrivate12QPodArrayOpsIcE10destroyAllEv(ptr noundef align 8 dereferenceable_or_null(24) %6) #3
  %7 = getelementptr inbounds nuw %struct.QArrayDataPointer.1, ptr %3, i32 0, i32 0
  %8 = load ptr, ptr %7, align 8
  call void @_ZN15QTypedArrayDataIcE10deallocateEP10QArrayData(ptr noundef %8) #3
  br label %9

9:                                                ; preds = %5, %1
  ret void
}

; Function Attrs: inlinehint mustprogress nounwind null_pointer_is_valid sspstrong uwtable
define linkonce_odr noundef ptr @_ZNK10QByteArray4dataEv(ptr noundef align 8 dereferenceable_or_null(24) %0) #2 comdat align 2 {
  %2 = alloca ptr, align 8
  store ptr %0, ptr %2, align 8
  %3 = load ptr, ptr %2, align 8
  %4 = getelementptr inbounds nuw %class.QByteArray, ptr %3, i32 0, i32 0
  %5 = call noundef ptr @_ZNK17QArrayDataPointerIcE4dataEv(ptr noundef align 8 dereferenceable_or_null(24) %4) #3
  %6 = icmp ne ptr %5, null
  br i1 %6, label %7, label %10

7:                                                ; preds = %1
  %8 = getelementptr inbounds nuw %class.QByteArray, ptr %3, i32 0, i32 0
  %9 = call noundef ptr @_ZNK17QArrayDataPointerIcE4dataEv(ptr noundef align 8 dereferenceable_or_null(24) %8) #3
  br label %11

10:                                               ; preds = %1
  br label %11

11:                                               ; preds = %10, %7
  %12 = phi ptr [ %9, %7 ], [ @_ZN10QByteArray6_emptyE, %10 ]
  ret ptr %12
}

; Function Attrs: inlinehint mustprogress nounwind null_pointer_is_valid sspstrong uwtable
define linkonce_odr void @_ZN7QStringD2Ev(ptr noundef align 8 dereferenceable_or_null(24) %0) unnamed_addr #2 comdat align 2 {
  %2 = alloca ptr, align 8
  store ptr %0, ptr %2, align 8
  %3 = load ptr, ptr %2, align 8
  %4 = getelementptr inbounds nuw %class.QString, ptr %3, i32 0, i32 0
  call void @_ZN17QArrayDataPointerIDsED2Ev(ptr noundef align 8 dereferenceable_or_null(24) %4) #3
  ret void
}

; Function Attrs: inlinehint mustprogress nounwind null_pointer_is_valid sspstrong uwtable
define linkonce_odr void @_ZN10QByteArrayD2Ev(ptr noundef align 8 dereferenceable_or_null(24) %0) unnamed_addr #2 comdat align 2 {
  %2 = alloca ptr, align 8
  store ptr %0, ptr %2, align 8
  %3 = load ptr, ptr %2, align 8
  %4 = getelementptr inbounds nuw %class.QByteArray, ptr %3, i32 0, i32 0
  call void @_ZN17QArrayDataPointerIcED2Ev(ptr noundef align 8 dereferenceable_or_null(24) %4) #3
  ret void
}

; Function Attrs: inlinehint mustprogress null_pointer_is_valid sspstrong uwtable
define linkonce_odr noundef ptr @_ZNK10QByteArray9constDataEv(ptr noundef align 8 dereferenceable_or_null(24) %0) #1 comdat align 2 {
  %2 = alloca ptr, align 8
  store ptr %0, ptr %2, align 8
  %3 = load ptr, ptr %2, align 8
  %4 = call noundef ptr @_ZNK10QByteArray4dataEv(ptr noundef align 8 dereferenceable_or_null(24) %3)
  ret ptr %4
}

; Function Attrs: mustprogress null_pointer_is_valid sspstrong uwtable
define linkonce_odr void @_ZNO7QString6toUtf8Ev(ptr dead_on_unwind noalias writable sret(%class.QByteArray) align 8 %0, ptr noundef align 8 dereferenceable_or_null(24) %1) #4 comdat align 2 {
  %3 = alloca ptr, align 8
  %4 = alloca ptr, align 8
  store ptr %0, ptr %3, align 8
  store ptr %1, ptr %4, align 8
  %5 = load ptr, ptr %4, align 8
  call void @_ZN7QString13toUtf8_helperERKS_(ptr dead_on_unwind writable sret(%class.QByteArray) align 8 %0, ptr noundef align 8 dereferenceable(24) %5)
  ret void
}

; Function Attrs: mustprogress null_pointer_is_valid sspstrong uwtable
define linkonce_odr void @_ZNKR7QString7trimmedEv(ptr dead_on_unwind noalias writable sret(%class.QString) align 8 %0, ptr noundef align 8 dereferenceable_or_null(24) %1) #4 comdat align 2 {
  %3 = alloca ptr, align 8
  %4 = alloca ptr, align 8
  store ptr %0, ptr %3, align 8
  store ptr %1, ptr %4, align 8
  %5 = load ptr, ptr %4, align 8
  call void @_ZN7QString14trimmed_helperERKS_(ptr dead_on_unwind writable sret(%class.QString) align 8 %0, ptr noundef align 8 dereferenceable(24) %5)
  ret void
}

; Function Attrs: inlinehint mustprogress nounwind null_pointer_is_valid sspstrong uwtable
define linkonce_odr noundef zeroext i1 @_ZNK7QString7isEmptyEv(ptr noundef align 8 dereferenceable_or_null(24) %0) #2 comdat align 2 {
  %2 = alloca ptr, align 8
  store ptr %0, ptr %2, align 8
  %3 = load ptr, ptr %2, align 8
  %4 = getelementptr inbounds nuw %class.QString, ptr %3, i32 0, i32 0
  %5 = getelementptr inbounds nuw %struct.QArrayDataPointer, ptr %4, i32 0, i32 2
  %6 = load i64, ptr %5, align 8
  %7 = icmp eq i64 %6, 0
  ret i1 %7
}

; Function Attrs: mustprogress null_pointer_is_valid sspstrong uwtable
define void @_ZN23DissectorSyntaxLineEdit18checkDissectorNameERK7QString(ptr noundef align 8 dereferenceable_or_null(216) %0, ptr noundef align 8 dereferenceable(24) %1) #4 align 2 personality ptr @__gxx_personality_v0 {
  %3 = alloca ptr, align 8
  %4 = alloca ptr, align 8
  %5 = alloca %class.QByteArray, align 8
  %6 = alloca %class.QString, align 8
  %7 = alloca ptr, align 8
  %8 = alloca i32, align 4
  store ptr %0, ptr %3, align 8
  store ptr %1, ptr %4, align 8
  %9 = load ptr, ptr %3, align 8
  %10 = load ptr, ptr %4, align 8
  %11 = call noundef zeroext i1 @_ZNK7QString7isEmptyEv(ptr noundef align 8 dereferenceable_or_null(24) %10)
  br i1 %11, label %12, label %13

12:                                               ; preds = %2
  call void @_ZN14SyntaxLineEdit14setSyntaxStateENS_11SyntaxStateE(ptr noundef align 8 dereferenceable_or_null(185) %9, i32 noundef 0)
  br label %33

13:                                               ; preds = %2
  call void @llvm.lifetime.start.p0(i64 24, ptr %5) #3
  call void @llvm.lifetime.start.p0(i64 24, ptr %6) #3
  %14 = load ptr, ptr %4, align 8
  call void @_ZNKR7QString7trimmedEv(ptr dead_on_unwind writable sret(%class.QString) align 8 %6, ptr noundef align 8 dereferenceable_or_null(24) %14)
  invoke void @_ZNO7QString6toUtf8Ev(ptr dead_on_unwind writable sret(%class.QByteArray) align 8 %5, ptr noundef align 8 dereferenceable_or_null(24) %6)
          to label %15 unwind label %22

15:                                               ; preds = %13
  %16 = invoke noundef ptr @_ZNK10QByteArray9constDataEv(ptr noundef align 8 dereferenceable_or_null(24) %5)
          to label %17 unwind label %26

17:                                               ; preds = %15
  %18 = invoke ptr @find_dissector(ptr noundef %16)
          to label %19 unwind label %26

19:                                               ; preds = %17
  %20 = icmp ne ptr %18, null
  call void @_ZN10QByteArrayD2Ev(ptr noundef align 8 dereferenceable_or_null(24) %5) #3
  call void @_ZN7QStringD2Ev(ptr noundef align 8 dereferenceable_or_null(24) %6) #3
  call void @llvm.lifetime.end.p0(i64 24, ptr %6) #3
  call void @llvm.lifetime.end.p0(i64 24, ptr %5) #3
  br i1 %20, label %21, label %31

21:                                               ; preds = %19
  call void @_ZN14SyntaxLineEdit14setSyntaxStateENS_11SyntaxStateE(ptr noundef align 8 dereferenceable_or_null(185) %9, i32 noundef 4)
  br label %32

22:                                               ; preds = %13
  %23 = landingpad { ptr, i32 }
          cleanup
  %24 = extractvalue { ptr, i32 } %23, 0
  store ptr %24, ptr %7, align 8
  %25 = extractvalue { ptr, i32 } %23, 1
  store i32 %25, ptr %8, align 4
  br label %30

26:                                               ; preds = %17, %15
  %27 = landingpad { ptr, i32 }
          cleanup
  %28 = extractvalue { ptr, i32 } %27, 0
  store ptr %28, ptr %7, align 8
  %29 = extractvalue { ptr, i32 } %27, 1
  store i32 %29, ptr %8, align 4
  call void @_ZN10QByteArrayD2Ev(ptr noundef align 8 dereferenceable_or_null(24) %5) #3
  br label %30

30:                                               ; preds = %26, %22
  call void @_ZN7QStringD2Ev(ptr noundef align 8 dereferenceable_or_null(24) %6) #3
  call void @llvm.lifetime.end.p0(i64 24, ptr %6) #3
  call void @llvm.lifetime.end.p0(i64 24, ptr %5) #3
  br label %34

31:                                               ; preds = %19
  call void @_ZN14SyntaxLineEdit14setSyntaxStateENS_11SyntaxStateE(ptr noundef align 8 dereferenceable_or_null(185) %9, i32 noundef 2)
  br label %32

32:                                               ; preds = %31, %21
  br label %33

33:                                               ; preds = %32, %12
  ret void

34:                                               ; preds = %30
  %35 = load ptr, ptr %7, align 8
  %36 = load i32, ptr %8, align 4
  %37 = insertvalue { ptr, i32 } poison, ptr %35, 0
  %38 = insertvalue { ptr, i32 } %37, i32 %36, 1
  resume { ptr, i32 } %38
}