; Function Attrs: mustprogress null_pointer_is_valid sspstrong uwtable
define void @_ZN23DissectorSyntaxLineEdit18checkDissectorNameERK7QString(ptr noundef align 8 dereferenceable_or_null(216) %0, ptr noundef align 8 dereferenceable(24) %1) #2 align 2 personality ptr @__gxx_personality_v0 {
  %3 = alloca %class.QByteArray, align 8
  %4 = alloca %class.QString, align 8
  %5 = getelementptr inbounds nuw i8, ptr %1, i64 16
  %6 = load i64, ptr %5, align 8
  %7 = icmp eq i64 %6, 0
  br i1 %7, label %8, label %9

8:                                                ; preds = %2
  tail call void @_ZN14SyntaxLineEdit14setSyntaxStateENS_11SyntaxStateE(ptr noundef align 8 dereferenceable_or_null(185) %0, i32 noundef 0)
  br label %37

9:                                                ; preds = %2
  call void @llvm.lifetime.start.p0(i64 24, ptr nonnull %3) #17
  call void @llvm.lifetime.start.p0(i64 24, ptr nonnull %4) #17
  call void @_ZN7QString14trimmed_helperERKS_(ptr dead_on_unwind nonnull writable sret(%class.QString) align 8 %4, ptr noundef align 8 dereferenceable(24) dereferenceable_or_null(24) %1)
  invoke void @_ZN7QString13toUtf8_helperERKS_(ptr dead_on_unwind nonnull writable sret(%class.QByteArray) align 8 %3, ptr noundef nonnull align 8 dereferenceable(24) dereferenceable_or_null(24) %4)
          to label %10 unwind label %24

10:                                               ; preds = %9
  %11 = getelementptr inbounds nuw i8, ptr %3, i64 8
  %12 = load ptr, ptr %11, align 8
  %.not.i.i = icmp eq ptr %12, null
  %spec.select.i.i = select i1 %.not.i.i, ptr @_ZN10QByteArray6_emptyE, ptr %12
  %13 = invoke ptr @find_dissector(ptr noundef nonnull %spec.select.i.i)
          to label %14 unwind label %26

14:                                               ; preds = %10
  %.not = icmp eq ptr %13, null
  %15 = load ptr, ptr %3, align 8
  %.not.i.i.i = icmp eq ptr %15, null
  br i1 %.not.i.i.i, label %_ZN10QByteArrayD2Ev.exit, label %_ZN17QArrayDataPointerIcE5derefEv.exit.i.i

_ZN17QArrayDataPointerIcE5derefEv.exit.i.i:       ; preds = %14
  %16 = atomicrmw sub ptr %15, i32 1 seq_cst, align 4
  %.not.i.i6 = icmp eq i32 %16, 1
  br i1 %.not.i.i6, label %17, label %_ZN10QByteArrayD2Ev.exit

17:                                               ; preds = %_ZN17QArrayDataPointerIcE5derefEv.exit.i.i
  %18 = load ptr, ptr %3, align 8
  call void @_ZN10QArrayData10deallocateEPS_xx(ptr noundef %18, i64 noundef 1, i64 noundef 8) #17
  br label %_ZN10QByteArrayD2Ev.exit

_ZN10QByteArrayD2Ev.exit:                         ; preds = %14, %_ZN17QArrayDataPointerIcE5derefEv.exit.i.i, %17
  %19 = load ptr, ptr %4, align 8
  %.not.i.i.i7 = icmp eq ptr %19, null
  br i1 %.not.i.i.i7, label %_ZN7QStringD2Ev.exit, label %_ZN17QArrayDataPointerIDsE5derefEv.exit.i.i

_ZN17QArrayDataPointerIDsE5derefEv.exit.i.i:      ; preds = %_ZN10QByteArrayD2Ev.exit
  %20 = atomicrmw sub ptr %19, i32 1 seq_cst, align 4
  %.not.i.i8 = icmp eq i32 %20, 1
  br i1 %.not.i.i8, label %21, label %_ZN7QStringD2Ev.exit

21:                                               ; preds = %_ZN17QArrayDataPointerIDsE5derefEv.exit.i.i
  %22 = load ptr, ptr %4, align 8
  call void @_ZN10QArrayData10deallocateEPS_xx(ptr noundef %22, i64 noundef 2, i64 noundef 8) #17
  br label %_ZN7QStringD2Ev.exit

_ZN7QStringD2Ev.exit:                             ; preds = %_ZN10QByteArrayD2Ev.exit, %_ZN17QArrayDataPointerIDsE5derefEv.exit.i.i, %21
  call void @llvm.lifetime.end.p0(i64 24, ptr nonnull %4) #17
  call void @llvm.lifetime.end.p0(i64 24, ptr nonnull %3) #17
  br i1 %.not, label %36, label %23

23:                                               ; preds = %_ZN7QStringD2Ev.exit
  call void @_ZN14SyntaxLineEdit14setSyntaxStateENS_11SyntaxStateE(ptr noundef align 8 dereferenceable_or_null(185) %0, i32 noundef 4)
  br label %37

24:                                               ; preds = %9
  %25 = landingpad { ptr, i32 }
          cleanup
  br label %_ZN10QByteArrayD2Ev.exit12

26:                                               ; preds = %10
  %27 = landingpad { ptr, i32 }
          cleanup
  %28 = load ptr, ptr %3, align 8
  %.not.i.i.i9 = icmp eq ptr %28, null
  br i1 %.not.i.i.i9, label %_ZN10QByteArrayD2Ev.exit12, label %_ZN17QArrayDataPointerIcE5derefEv.exit.i.i10

_ZN17QArrayDataPointerIcE5derefEv.exit.i.i10:     ; preds = %26
  %29 = atomicrmw sub ptr %28, i32 1 seq_cst, align 4
  %.not.i.i11 = icmp eq i32 %29, 1
  br i1 %.not.i.i11, label %30, label %_ZN10QByteArrayD2Ev.exit12

30:                                               ; preds = %_ZN17QArrayDataPointerIcE5derefEv.exit.i.i10
  %31 = load ptr, ptr %3, align 8
  call void @_ZN10QArrayData10deallocateEPS_xx(ptr noundef %31, i64 noundef 1, i64 noundef 8) #17
  br label %_ZN10QByteArrayD2Ev.exit12

_ZN10QByteArrayD2Ev.exit12:                       ; preds = %30, %_ZN17QArrayDataPointerIcE5derefEv.exit.i.i10, %26, %24
  %.pn = phi { ptr, i32 } [ %25, %24 ], [ %27, %26 ], [ %27, %_ZN17QArrayDataPointerIcE5derefEv.exit.i.i10 ], [ %27, %30 ]
  %32 = load ptr, ptr %4, align 8
  %.not.i.i.i13 = icmp eq ptr %32, null
  br i1 %.not.i.i.i13, label %_ZN7QStringD2Ev.exit16, label %_ZN17QArrayDataPointerIDsE5derefEv.exit.i.i14

_ZN17QArrayDataPointerIDsE5derefEv.exit.i.i14:    ; preds = %_ZN10QByteArrayD2Ev.exit12
  %33 = atomicrmw sub ptr %32, i32 1 seq_cst, align 4
  %.not.i.i15 = icmp eq i32 %33, 1
  br i1 %.not.i.i15, label %34, label %_ZN7QStringD2Ev.exit16

34:                                               ; preds = %_ZN17QArrayDataPointerIDsE5derefEv.exit.i.i14
  %35 = load ptr, ptr %4, align 8
  call void @_ZN10QArrayData10deallocateEPS_xx(ptr noundef %35, i64 noundef 2, i64 noundef 8) #17
  br label %_ZN7QStringD2Ev.exit16

_ZN7QStringD2Ev.exit16:                           ; preds = %_ZN10QByteArrayD2Ev.exit12, %_ZN17QArrayDataPointerIDsE5derefEv.exit.i.i14, %34
  call void @llvm.lifetime.end.p0(i64 24, ptr nonnull %4) #17
  call void @llvm.lifetime.end.p0(i64 24, ptr nonnull %3) #17
  resume { ptr, i32 } %.pn

36:                                               ; preds = %_ZN7QStringD2Ev.exit
  call void @_ZN14SyntaxLineEdit14setSyntaxStateENS_11SyntaxStateE(ptr noundef align 8 dereferenceable_or_null(185) %0, i32 noundef 2)
  br label %37

37:                                               ; preds = %23, %36, %8
  ret void
}